target datalayout = "e-m:e-p270:32:32-p271:32:32-p272:64:64-i64:64-i128:128-f80:128-n8:16:32:64-S128"
target triple = "x86_64-pc-linux-gnu"

%struct.ossl_method_construct_method_st = type { ptr, ptr, ptr, ptr, ptr, ptr, ptr }
%struct.evp_method_data_st = type { ptr, i32, i32, ptr, ptr, ptr, i8, ptr, ptr, ptr }

@.str = private unnamed_addr constant [34 x i8] c"../openssl/crypto/evp/evp_fetch.c\00", align 1
@.str.4 = private unnamed_addr constant [1 x i8] zeroinitializer, align 1
@__func__.inner_evp_generic_fetch = private unnamed_addr constant [24 x i8] c"inner_evp_generic_fetch\00", align 1
@.str.5 = private unnamed_addr constant [29 x i8] c"Algorithm %s cannot be found\00", align 1
@.str.6 = private unnamed_addr constant [41 x i8] c"%s, Algorithm (%s : %d), Properties (%s)\00", align 1
@.str.7 = private unnamed_addr constant [7 x i8] c"<null>\00", align 1

; Function Attrs: nounwind uwtable
define internal i32 @evp_method_id(i32 noundef %0, i32 noundef %1) #0 {
  %3 = alloca i32, align 4
  %4 = alloca i32, align 4
  %5 = alloca i32, align 4
  store i32 %0, ptr %4, align 4, !tbaa !8
  store i32 %1, ptr %5, align 4, !tbaa !8
  %6 = load i32, ptr %4, align 4, !tbaa !8
  %7 = icmp sgt i32 %6, 0
  br i1 %7, label %8, label %11

8:                                                ; preds = %2
  %9 = load i32, ptr %4, align 4, !tbaa !8
  %10 = icmp sle i32 %9, 8388607
  br label %11

11:                                               ; preds = %8, %2
  %12 = phi i1 [ false, %2 ], [ %10, %8 ]
  %13 = zext i1 %12 to i32
  %14 = icmp ne i32 %13, 0
  %15 = xor i1 %14, true
  %16 = xor i1 %15, true
  %17 = zext i1 %16 to i32
  %18 = sext i32 %17 to i64
  %19 = call i64 @llvm.expect.i64(i64 %18, i64 1)
  %20 = icmp ne i64 %19, 0
  br i1 %20, label %21, label %37

21:                                               ; preds = %11
  %22 = load i32, ptr %5, align 4, !tbaa !8
  %23 = icmp ugt i32 %22, 0
  br i1 %23, label %24, label %27

24:                                               ; preds = %21
  %25 = load i32, ptr %5, align 4, !tbaa !8
  %26 = icmp ule i32 %25, 255
  br label %27

27:                                               ; preds = %24, %21
  %28 = phi i1 [ false, %21 ], [ %26, %24 ]
  %29 = zext i1 %28 to i32
  %30 = icmp ne i32 %29, 0
  %31 = xor i1 %30, true
  %32 = xor i1 %31, true
  %33 = zext i1 %32 to i32
  %34 = sext i32 %33 to i64
  %35 = call i64 @llvm.expect.i64(i64 %34, i64 1)
  %36 = icmp ne i64 %35, 0
  br i1 %36, label %38, label %37

37:                                               ; preds = %27, %11
  store i32 0, ptr %3, align 4
  br label %45

38:                                               ; preds = %27
  %39 = load i32, ptr %4, align 4, !tbaa !8
  %40 = shl i32 %39, 8
  %41 = and i32 %40, 2147483392
  %42 = load i32, ptr %5, align 4, !tbaa !8
  %43 = and i32 %42, 255
  %44 = or i32 %41, %43
  store i32 %44, ptr %3, align 4
  br label %45

45:                                               ; preds = %38, %37
  %46 = load i32, ptr %3, align 4
  ret i32 %46
}

; Function Attrs: nounwind uwtable
define internal ptr @get_evp_method_store(ptr noundef %0) #0 {
  %2 = alloca ptr, align 8
  store ptr %0, ptr %2, align 8, !tbaa !3
  %3 = load ptr, ptr %2, align 8, !tbaa !3
  %4 = call ptr @ossl_lib_ctx_get_data(ptr noundef %3, i32 noundef 0)
  ret ptr %4
}

; Function Attrs: nounwind uwtable
define internal ptr @inner_evp_generic_fetch(ptr noundef %0, ptr noundef %1, i32 noundef %2, ptr noundef %3, ptr noundef %4, ptr noundef %5, ptr noundef %6, ptr noundef %7) #0 {
  %9 = alloca ptr, align 8
  %10 = alloca ptr, align 8
  %11 = alloca ptr, align 8
  %12 = alloca i32, align 4
  %13 = alloca ptr, align 8
  %14 = alloca ptr, align 8
  %15 = alloca ptr, align 8
  %16 = alloca ptr, align 8
  %17 = alloca ptr, align 8
  %18 = alloca ptr, align 8
  %19 = alloca ptr, align 8
  %20 = alloca ptr, align 8
  %21 = alloca i32, align 4
  %22 = alloca ptr, align 8
  %23 = alloca i32, align 4
  %24 = alloca i32, align 4
  %25 = alloca i32, align 4
  %26 = alloca %struct.ossl_method_construct_method_st, align 8
  %27 = alloca i32, align 4
  store ptr %0, ptr %10, align 8, !tbaa !17
  store ptr %1, ptr %11, align 8, !tbaa !19
  store i32 %2, ptr %12, align 4, !tbaa !8
  store ptr %3, ptr %13, align 8, !tbaa !10
  store ptr %4, ptr %14, align 8, !tbaa !10
  store ptr %5, ptr %15, align 8, !tbaa !12
  store ptr %6, ptr %16, align 8, !tbaa !12
  store ptr %7, ptr %17, align 8, !tbaa !12
  call void @llvm.lifetime.start.p0(i64 8, ptr %18) #6
  %28 = load ptr, ptr %10, align 8, !tbaa !17
  %29 = getelementptr inbounds nuw %struct.evp_method_data_st, ptr %28, i32 0, i32 0
  %30 = load ptr, ptr %29, align 8, !tbaa !13
  %31 = call ptr @get_evp_method_store(ptr noundef %30)
  store ptr %31, ptr %18, align 8, !tbaa !21
  call void @llvm.lifetime.start.p0(i64 8, ptr %19) #6
  %32 = load ptr, ptr %10, align 8, !tbaa !17
  %33 = getelementptr inbounds nuw %struct.evp_method_data_st, ptr %32, i32 0, i32 0
  %34 = load ptr, ptr %33, align 8, !tbaa !13
  %35 = call ptr @ossl_namemap_stored(ptr noundef %34)
  store ptr %35, ptr %19, align 8, !tbaa !22
  call void @llvm.lifetime.start.p0(i64 8, ptr %20) #6
  %36 = load ptr, ptr %14, align 8, !tbaa !10
  %37 = icmp ne ptr %36, null
  br i1 %37, label %38, label %40

38:                                               ; preds = %8
  %39 = load ptr, ptr %14, align 8, !tbaa !10
  br label %41

40:                                               ; preds = %8
  br label %41

41:                                               ; preds = %40, %38
  %42 = phi ptr [ %39, %38 ], [ @.str.4, %40 ]
  store ptr %42, ptr %20, align 8, !tbaa !10
  call void @llvm.lifetime.start.p0(i64 4, ptr %21) #6
  store i32 0, ptr %21, align 4, !tbaa !8
  call void @llvm.lifetime.start.p0(i64 8, ptr %22) #6
  store ptr null, ptr %22, align 8, !tbaa !12
  call void @llvm.lifetime.start.p0(i64 4, ptr %23) #6
  call void @llvm.lifetime.start.p0(i64 4, ptr %24) #6
  %43 = load ptr, ptr %18, align 8, !tbaa !21
  %44 = icmp eq ptr %43, null
  br i1 %44, label %48, label %45

45:                                               ; preds = %41
  %46 = load ptr, ptr %19, align 8, !tbaa !22
  %47 = icmp eq ptr %46, null
  br i1 %47, label %48, label %49

48:                                               ; preds = %45, %41
  call void @ERR_new()
  call void @ERR_set_debug(ptr noundef @.str, i32 noundef 278, ptr noundef @__func__.inner_evp_generic_fetch)
  call void (i32, i32, ptr, ...) @ERR_set_error(i32 noundef 6, i32 noundef 524550, ptr noundef null)
  store ptr null, ptr %9, align 8
  store i32 1, ptr %25, align 4
  br label %209

49:                                               ; preds = %45
  %50 = load i32, ptr %12, align 4, !tbaa !8
  %51 = icmp sgt i32 %50, 0
  %52 = zext i1 %51 to i32
  %53 = icmp ne i32 %52, 0
  %54 = xor i1 %53, true
  %55 = xor i1 %54, true
  %56 = zext i1 %55 to i32
  %57 = sext i32 %56 to i64
  %58 = call i64 @llvm.expect.i64(i64 %57, i64 1)
  %59 = icmp ne i64 %58, 0
  br i1 %59, label %61, label %60

60:                                               ; preds = %49
  call void @ERR_new()
  call void @ERR_set_debug(ptr noundef @.str, i32 noundef 287, ptr noundef @__func__.inner_evp_generic_fetch)
  call void (i32, i32, ptr, ...) @ERR_set_error(i32 noundef 6, i32 noundef 786691, ptr noundef null)
  store ptr null, ptr %9, align 8
  store i32 1, ptr %25, align 4
  br label %209

61:                                               ; preds = %49
  %62 = load ptr, ptr %13, align 8, !tbaa !10
  %63 = icmp ne ptr %62, null
  br i1 %63, label %64, label %68

64:                                               ; preds = %61
  %65 = load ptr, ptr %19, align 8, !tbaa !22
  %66 = load ptr, ptr %13, align 8, !tbaa !10
  %67 = call i32 @ossl_namemap_name2num(ptr noundef %65, ptr noundef %66)
  br label %69

68:                                               ; preds = %61
  br label %69

69:                                               ; preds = %68, %64
  %70 = phi i32 [ %67, %64 ], [ 0, %68 ]
  store i32 %70, ptr %24, align 4, !tbaa !8
  %71 = load i32, ptr %24, align 4, !tbaa !8
  %72 = icmp ne i32 %71, 0
  br i1 %72, label %73, label %79

73:                                               ; preds = %69
  %74 = load i32, ptr %24, align 4, !tbaa !8
  %75 = load i32, ptr %12, align 4, !tbaa !8
  %76 = call i32 @evp_method_id(i32 noundef %74, i32 noundef %75)
  store i32 %76, ptr %21, align 4, !tbaa !8
  %77 = icmp eq i32 %76, 0
  br i1 %77, label %78, label %79

78:                                               ; preds = %73
  call void @ERR_new()
  call void @ERR_set_debug(ptr noundef @.str, i32 noundef 303, ptr noundef @__func__.inner_evp_generic_fetch)
  call void (i32, i32, ptr, ...) @ERR_set_error(i32 noundef 6, i32 noundef 786691, ptr noundef null)
  store ptr null, ptr %9, align 8
  store i32 1, ptr %25, align 4
  br label %209

79:                                               ; preds = %73, %69
  %80 = load i32, ptr %24, align 4, !tbaa !8
  %81 = icmp eq i32 %80, 0
  %82 = zext i1 %81 to i32
  store i32 %82, ptr %23, align 4, !tbaa !8
  %83 = load i32, ptr %21, align 4, !tbaa !8
  %84 = icmp eq i32 %83, 0
  br i1 %84, label %92, label %85

85:                                               ; preds = %79
  %86 = load ptr, ptr %18, align 8, !tbaa !21
  %87 = load ptr, ptr %11, align 8, !tbaa !19
  %88 = load i32, ptr %21, align 4, !tbaa !8
  %89 = load ptr, ptr %20, align 8, !tbaa !10
  %90 = call i32 @ossl_method_store_cache_get(ptr noundef %86, ptr noundef %87, i32 noundef %88, ptr noundef %89, ptr noundef %22)
  %91 = icmp ne i32 %90, 0
  br i1 %91, label %166, label %92

92:                                               ; preds = %85, %79
  call void @llvm.lifetime.start.p0(i64 56, ptr %26) #6
  call void @llvm.memcpy.p0.p0.i64(ptr align 8 %26, ptr align 8 @__const.inner_evp_generic_fetch.mcm, i64 56, i1 false)
  %93 = load i32, ptr %12, align 4, !tbaa !8
  %94 = load ptr, ptr %10, align 8, !tbaa !17
  %95 = getelementptr inbounds nuw %struct.evp_method_data_st, ptr %94, i32 0, i32 1
  store i32 %93, ptr %95, align 8, !tbaa !24
  %96 = load i32, ptr %24, align 4, !tbaa !8
  %97 = load ptr, ptr %10, align 8, !tbaa !17
  %98 = getelementptr inbounds nuw %struct.evp_method_data_st, ptr %97, i32 0, i32 2
  store i32 %96, ptr %98, align 4, !tbaa !25
  %99 = load ptr, ptr %13, align 8, !tbaa !10
  %100 = load ptr, ptr %10, align 8, !tbaa !17
  %101 = getelementptr inbounds nuw %struct.evp_method_data_st, ptr %100, i32 0, i32 3
  store ptr %99, ptr %101, align 8, !tbaa !26
  %102 = load ptr, ptr %20, align 8, !tbaa !10
  %103 = load ptr, ptr %10, align 8, !tbaa !17
  %104 = getelementptr inbounds nuw %struct.evp_method_data_st, ptr %103, i32 0, i32 4
  store ptr %102, ptr %104, align 8, !tbaa !27
  %105 = load ptr, ptr %15, align 8, !tbaa !12
  %106 = load ptr, ptr %10, align 8, !tbaa !17
  %107 = getelementptr inbounds nuw %struct.evp_method_data_st, ptr %106, i32 0, i32 7
  store ptr %105, ptr %107, align 8, !tbaa !28
  %108 = load ptr, ptr %16, align 8, !tbaa !12
  %109 = load ptr, ptr %10, align 8, !tbaa !17
  %110 = getelementptr inbounds nuw %struct.evp_method_data_st, ptr %109, i32 0, i32 8
  store ptr %108, ptr %110, align 8, !tbaa !29
  %111 = load ptr, ptr %17, align 8, !tbaa !12
  %112 = load ptr, ptr %10, align 8, !tbaa !17
  %113 = getelementptr inbounds nuw %struct.evp_method_data_st, ptr %112, i32 0, i32 9
  store ptr %111, ptr %113, align 8, !tbaa !30
  %114 = load ptr, ptr %10, align 8, !tbaa !17
  %115 = getelementptr inbounds nuw %struct.evp_method_data_st, ptr %114, i32 0, i32 6
  %116 = load i8, ptr %115, align 8
  %117 = and i8 %116, -2
  %118 = or i8 %117, 0
  store i8 %118, ptr %115, align 8
  %119 = load ptr, ptr %10, align 8, !tbaa !17
  %120 = getelementptr inbounds nuw %struct.evp_method_data_st, ptr %119, i32 0, i32 0
  %121 = load ptr, ptr %120, align 8, !tbaa !13
  %122 = load i32, ptr %12, align 4, !tbaa !8
  %123 = load ptr, ptr %10, align 8, !tbaa !17
  %124 = call ptr @ossl_method_construct(ptr noundef %121, i32 noundef %122, ptr noundef %11, i32 noundef 0, ptr noundef %26, ptr noundef %123)
  store ptr %124, ptr %22, align 8, !tbaa !12
  %125 = icmp ne ptr %124, null
  br i1 %125, label %126, label %157

126:                                              ; preds = %92
  %127 = load i32, ptr %24, align 4, !tbaa !8
  %128 = icmp eq i32 %127, 0
  br i1 %128, label %129, label %133

129:                                              ; preds = %126
  %130 = load ptr, ptr %19, align 8, !tbaa !22
  %131 = load ptr, ptr %13, align 8, !tbaa !10
  %132 = call i32 @ossl_namemap_name2num(ptr noundef %130, ptr noundef %131)
  store i32 %132, ptr %24, align 4, !tbaa !8
  br label %133

133:                                              ; preds = %129, %126
  %134 = load i32, ptr %24, align 4, !tbaa !8
  %135 = icmp eq i32 %134, 0
  br i1 %135, label %136, label %140

136:                                              ; preds = %133
  call void @ERR_new()
  call void @ERR_set_debug(ptr noundef @.str, i32 noundef 351, ptr noundef @__func__.inner_evp_generic_fetch)
  %137 = load ptr, ptr %13, align 8, !tbaa !10
  call void (i32, i32, ptr, ...) @ERR_set_error(i32 noundef 6, i32 noundef 524557, ptr noundef @.str.5, ptr noundef %137)
  %138 = load ptr, ptr %17, align 8, !tbaa !12
  %139 = load ptr, ptr %22, align 8, !tbaa !12
  call void %138(ptr noundef %139)
  store ptr null, ptr %22, align 8, !tbaa !12
  br label %156

140:                                              ; preds = %133
  %141 = load i32, ptr %24, align 4, !tbaa !8
  %142 = load i32, ptr %12, align 4, !tbaa !8
  %143 = call i32 @evp_method_id(i32 noundef %141, i32 noundef %142)
  store i32 %143, ptr %21, align 4, !tbaa !8
  %144 = load i32, ptr %21, align 4, !tbaa !8
  %145 = icmp ne i32 %144, 0
  br i1 %145, label %146, label %155

146:                                              ; preds = %140
  %147 = load ptr, ptr %18, align 8, !tbaa !21
  %148 = load ptr, ptr %11, align 8, !tbaa !19
  %149 = load i32, ptr %21, align 4, !tbaa !8
  %150 = load ptr, ptr %20, align 8, !tbaa !10
  %151 = load ptr, ptr %22, align 8, !tbaa !12
  %152 = load ptr, ptr %16, align 8, !tbaa !12
  %153 = load ptr, ptr %17, align 8, !tbaa !12
  %154 = call i32 @ossl_method_store_cache_set(ptr noundef %147, ptr noundef %148, i32 noundef %149, ptr noundef %150, ptr noundef %151, ptr noundef %152, ptr noundef %153)
  br label %155

155:                                              ; preds = %146, %140
  br label %156

156:                                              ; preds = %155, %136
  br label %157

157:                                              ; preds = %156, %92
  %158 = load ptr, ptr %10, align 8, !tbaa !17
  %159 = getelementptr inbounds nuw %struct.evp_method_data_st, ptr %158, i32 0, i32 6
  %160 = load i8, ptr %159, align 8
  %161 = and i8 %160, 1
  %162 = zext i8 %161 to i32
  %163 = icmp ne i32 %162, 0
  %164 = xor i1 %163, true
  %165 = zext i1 %164 to i32
  store i32 %165, ptr %23, align 4, !tbaa !8
  call void @llvm.lifetime.end.p0(i64 56, ptr %26) #6
  br label %166

166:                                              ; preds = %157, %85
  %167 = load i32, ptr %24, align 4, !tbaa !8
  %168 = icmp ne i32 %167, 0
  br i1 %168, label %172, label %169

169:                                              ; preds = %166
  %170 = load ptr, ptr %13, align 8, !tbaa !10
  %171 = icmp ne ptr %170, null
  br i1 %171, label %172, label %206

172:                                              ; preds = %169, %166
  %173 = load ptr, ptr %22, align 8, !tbaa !12
  %174 = icmp eq ptr %173, null
  br i1 %174, label %175, label %206

175:                                              ; preds = %172
  call void @llvm.lifetime.start.p0(i64 4, ptr %27) #6
  %176 = load i32, ptr %23, align 4, !tbaa !8
  %177 = icmp ne i32 %176, 0
  %178 = select i1 %177, i32 524556, i32 524557
  store i32 %178, ptr %27, align 4, !tbaa !8
  %179 = load ptr, ptr %13, align 8, !tbaa !10
  %180 = icmp eq ptr %179, null
  br i1 %180, label %181, label %185

181:                                              ; preds = %175
  %182 = load ptr, ptr %19, align 8, !tbaa !22
  %183 = load i32, ptr %24, align 4, !tbaa !8
  %184 = call ptr @ossl_namemap_num2name(ptr noundef %182, i32 noundef %183, i64 noundef 0)
  store ptr %184, ptr %13, align 8, !tbaa !10
  br label %185

185:                                              ; preds = %181, %175
  call void @ERR_new()
  call void @ERR_set_debug(ptr noundef @.str, i32 noundef 375, ptr noundef @__func__.inner_evp_generic_fetch)
  %186 = load i32, ptr %27, align 4, !tbaa !8
  %187 = load ptr, ptr %10, align 8, !tbaa !17
  %188 = getelementptr inbounds nuw %struct.evp_method_data_st, ptr %187, i32 0, i32 0
  %189 = load ptr, ptr %188, align 8, !tbaa !13
  %190 = call ptr @ossl_lib_ctx_get_descriptor(ptr noundef %189)
  %191 = load ptr, ptr %13, align 8, !tbaa !10
  %192 = icmp eq ptr %191, null
  br i1 %192, label %193, label %194

193:                                              ; preds = %185
  br label %196

194:                                              ; preds = %185
  %195 = load ptr, ptr %13, align 8, !tbaa !10
  br label %196

196:                                              ; preds = %194, %193
  %197 = phi ptr [ @.str.7, %193 ], [ %195, %194 ]
  %198 = load i32, ptr %24, align 4, !tbaa !8
  %199 = load ptr, ptr %14, align 8, !tbaa !10
  %200 = icmp eq ptr %199, null
  br i1 %200, label %201, label %202

201:                                              ; preds = %196
  br label %204

202:                                              ; preds = %196
  %203 = load ptr, ptr %14, align 8, !tbaa !10
  br label %204

204:                                              ; preds = %202, %201
  %205 = phi ptr [ @.str.7, %201 ], [ %203, %202 ]
  call void (i32, i32, ptr, ...) @ERR_set_error(i32 noundef 6, i32 noundef %186, ptr noundef @.str.6, ptr noundef %190, ptr noundef %197, i32 noundef %198, ptr noundef %205)
  call void @llvm.lifetime.end.p0(i64 4, ptr %27) #6
  br label %207

206:                                              ; preds = %172, %169
  br label %207

207:                                              ; preds = %206, %204
  %208 = load ptr, ptr %22, align 8, !tbaa !12
  store ptr %208, ptr %9, align 8
  store i32 1, ptr %25, align 4
  br label %209

209:                                              ; preds = %207, %78, %60, %48
  call void @llvm.lifetime.end.p0(i64 4, ptr %24) #6
  call void @llvm.lifetime.end.p0(i64 4, ptr %23) #6
  call void @llvm.lifetime.end.p0(i64 8, ptr %22) #6
  call void @llvm.lifetime.end.p0(i64 4, ptr %21) #6
  call void @llvm.lifetime.end.p0(i64 8, ptr %20) #6
  call void @llvm.lifetime.end.p0(i64 8, ptr %19) #6
  call void @llvm.lifetime.end.p0(i64 8, ptr %18) #6
  %210 = load ptr, ptr %9, align 8
  ret ptr %210
}