; Function Attrs: nounwind uwtable
define internal fastcc ptr @inner_evp_generic_fetch(ptr noundef nonnull %0, ptr noundef %1, i32 noundef %2, ptr noundef %3, ptr noundef %4, ptr noundef %5, ptr noundef %6, ptr noundef %7) unnamed_addr #0 {
  %9 = alloca ptr, align 8
  %10 = alloca ptr, align 8
  %11 = alloca %struct.ossl_method_construct_method_st, align 8
  store ptr %1, ptr %9, align 8, !tbaa !13
  %12 = load ptr, ptr %0, align 8, !tbaa !3
  %13 = tail call ptr @ossl_lib_ctx_get_data(ptr noundef %12, i32 noundef 0) #5
  %14 = load ptr, ptr %0, align 8, !tbaa !3
  %15 = tail call ptr @ossl_namemap_stored(ptr noundef %14) #5
  %.not = icmp eq ptr %4, null
  %16 = select i1 %.not, ptr @.str.4, ptr %4
  call void @llvm.lifetime.start.p0(i64 8, ptr nonnull %10) #5
  store ptr null, ptr %10, align 8, !tbaa !15
  %17 = icmp eq ptr %13, null
  %18 = icmp eq ptr %15, null
  %or.cond = select i1 %17, i1 true, i1 %18
  br i1 %or.cond, label %19, label %20

19:                                               ; preds = %8
  tail call void @ERR_new() #5
  tail call void @ERR_set_debug(ptr noundef nonnull @.str, i32 noundef 278, ptr noundef nonnull @__func__.inner_evp_generic_fetch) #5
  tail call void (i32, i32, ptr, ...) @ERR_set_error(i32 noundef 6, i32 noundef 524550, ptr noundef null) #5
  br label %83

20:                                               ; preds = %8
  %21 = icmp sgt i32 %2, 0
  br i1 %21, label %23, label %22, !prof !16

22:                                               ; preds = %20
  tail call void @ERR_new() #5
  tail call void @ERR_set_debug(ptr noundef nonnull @.str, i32 noundef 287, ptr noundef nonnull @__func__.inner_evp_generic_fetch) #5
  tail call void (i32, i32, ptr, ...) @ERR_set_error(i32 noundef 6, i32 noundef 786691, ptr noundef null) #5
  br label %83

23:                                               ; preds = %20
  %24 = icmp ne ptr %3, null
  br i1 %24, label %25, label %.thread91

25:                                               ; preds = %23
  %26 = tail call i32 @ossl_namemap_name2num(ptr noundef nonnull %15, ptr noundef nonnull %3) #5
  %.not82 = icmp eq i32 %26, 0
  br i1 %.not82, label %.thread91, label %27

27:                                               ; preds = %25
  %28 = icmp ugt i32 %26, 8388607
  %29 = icmp samesign ugt i32 %2, 255
  %or.cond.i.not = or i1 %29, %28
  br i1 %or.cond.i.not, label %30, label %31

30:                                               ; preds = %27
  tail call void @ERR_new() #5
  tail call void @ERR_set_debug(ptr noundef nonnull @.str, i32 noundef 303, ptr noundef nonnull @__func__.inner_evp_generic_fetch) #5
  tail call void (i32, i32, ptr, ...) @ERR_set_error(i32 noundef 6, i32 noundef 786691, ptr noundef null) #5
  br label %83

31:                                               ; preds = %27
  %32 = shl nuw nsw i32 %26, 8
  %33 = or disjoint i32 %32, %2
  %34 = call i32 @ossl_method_store_cache_get(ptr noundef nonnull %13, ptr noundef %1, i32 noundef %33, ptr noundef nonnull %16, ptr noundef nonnull %10) #5
  %.not83 = icmp eq i32 %34, 0
  br i1 %.not83, label %.thread91, label %69

.thread91:                                        ; preds = %23, %25, %31
  %35 = phi i1 [ true, %31 ], [ false, %25 ], [ false, %23 ]
  %36 = phi i32 [ %26, %31 ], [ 0, %25 ], [ 0, %23 ]
  call void @llvm.lifetime.start.p0(i64 56, ptr nonnull %11) #5
  call void @llvm.memcpy.p0.p0.i64(ptr noundef nonnull align 8 dereferenceable(56) %11, ptr noundef nonnull align 8 dereferenceable(56) @__const.inner_evp_generic_fetch.mcm, i64 56, i1 false)
  %37 = getelementptr inbounds nuw i8, ptr %0, i64 8
  store i32 %2, ptr %37, align 8, !tbaa !17
  %38 = getelementptr inbounds nuw i8, ptr %0, i64 12
  store i32 %36, ptr %38, align 4, !tbaa !18
  %39 = getelementptr inbounds nuw i8, ptr %0, i64 16
  store ptr %3, ptr %39, align 8, !tbaa !19
  %40 = getelementptr inbounds nuw i8, ptr %0, i64 24
  store ptr %16, ptr %40, align 8, !tbaa !20
  %41 = getelementptr inbounds nuw i8, ptr %0, i64 48
  store ptr %5, ptr %41, align 8, !tbaa !21
  %42 = getelementptr inbounds nuw i8, ptr %0, i64 56
  store ptr %6, ptr %42, align 8, !tbaa !22
  %43 = getelementptr inbounds nuw i8, ptr %0, i64 64
  store ptr %7, ptr %43, align 8, !tbaa !23
  %44 = getelementptr inbounds nuw i8, ptr %0, i64 40
  %45 = load i8, ptr %44, align 8
  %46 = and i8 %45, -2
  store i8 %46, ptr %44, align 8
  %47 = load ptr, ptr %0, align 8, !tbaa !3
  %48 = call ptr @ossl_method_construct(ptr noundef %47, i32 noundef %2, ptr noundef nonnull %9, i32 noundef 0, ptr noundef nonnull %11, ptr noundef nonnull %0) #5
  store ptr %48, ptr %10, align 8, !tbaa !15
  %.not84 = icmp eq ptr %48, null
  br i1 %.not84, label %65, label %49

49:                                               ; preds = %.thread91
  br i1 %35, label %52, label %50

50:                                               ; preds = %49
  %51 = call i32 @ossl_namemap_name2num(ptr noundef nonnull %15, ptr noundef %3) #5
  br label %52

52:                                               ; preds = %50, %49
  %.2 = phi i32 [ %51, %50 ], [ %36, %49 ]
  %53 = icmp eq i32 %.2, 0
  br i1 %53, label %54, label %56

54:                                               ; preds = %52
  call void @ERR_new() #5
  call void @ERR_set_debug(ptr noundef nonnull @.str, i32 noundef 351, ptr noundef nonnull @__func__.inner_evp_generic_fetch) #5
  call void (i32, i32, ptr, ...) @ERR_set_error(i32 noundef 6, i32 noundef 524557, ptr noundef nonnull @.str.5, ptr noundef %3) #5
  %55 = load ptr, ptr %10, align 8, !tbaa !15
  call void %7(ptr noundef %55) #5
  store ptr null, ptr %10, align 8, !tbaa !15
  br label %65

56:                                               ; preds = %52
  %57 = icmp ugt i32 %.2, 8388607
  %58 = icmp samesign ugt i32 %2, 255
  %or.cond.i88.not = or i1 %58, %57
  br i1 %or.cond.i88.not, label %65, label %59

59:                                               ; preds = %56
  %60 = shl nuw nsw i32 %.2, 8
  %61 = or disjoint i32 %60, %2
  %62 = load ptr, ptr %9, align 8, !tbaa !13
  %63 = load ptr, ptr %10, align 8, !tbaa !15
  %64 = call i32 @ossl_method_store_cache_set(ptr noundef nonnull %13, ptr noundef %62, i32 noundef %61, ptr noundef nonnull %16, ptr noundef %63, ptr noundef %6, ptr noundef %7) #5
  br label %65

65:                                               ; preds = %54, %59, %56, %.thread91
  %.1 = phi i32 [ 0, %54 ], [ %.2, %59 ], [ %.2, %56 ], [ %36, %.thread91 ]
  %66 = load i8, ptr %44, align 8
  %67 = and i8 %66, 1
  call void @llvm.lifetime.end.p0(i64 56, ptr nonnull %11) #5
  %.not98 = icmp eq i8 %67, 0
  %68 = select i1 %.not98, i32 524556, i32 524557
  br label %69

69:                                               ; preds = %65, %31
  %.070 = phi i32 [ %68, %65 ], [ 524557, %31 ]
  %.069 = phi i32 [ %.1, %65 ], [ %26, %31 ]
  %70 = icmp ne i32 %.069, 0
  %or.cond3 = or i1 %24, %70
  %71 = load ptr, ptr %10, align 8
  %72 = icmp eq ptr %71, null
  %or.cond5 = select i1 %or.cond3, i1 %72, i1 false
  br i1 %or.cond5, label %73, label %83

73:                                               ; preds = %69
  %74 = icmp eq ptr %3, null
  br i1 %74, label %75, label %77

75:                                               ; preds = %73
  %76 = call ptr @ossl_namemap_num2name(ptr noundef nonnull %15, i32 noundef %.069, i64 noundef 0) #5
  br label %77

77:                                               ; preds = %75, %73
  %.072 = phi ptr [ %76, %75 ], [ %3, %73 ]
  call void @ERR_new() #5
  call void @ERR_set_debug(ptr noundef nonnull @.str, i32 noundef 375, ptr noundef nonnull @__func__.inner_evp_generic_fetch) #5
  %78 = load ptr, ptr %0, align 8, !tbaa !3
  %79 = call ptr @ossl_lib_ctx_get_descriptor(ptr noundef %78) #5
  %80 = icmp eq ptr %.072, null
  %81 = select i1 %80, ptr @.str.7, ptr %.072
  %82 = select i1 %.not, ptr @.str.7, ptr %4
  call void (i32, i32, ptr, ...) @ERR_set_error(i32 noundef 6, i32 noundef %.070, ptr noundef nonnull @.str.6, ptr noundef %79, ptr noundef nonnull %81, i32 noundef %.069, ptr noundef nonnull %82) #5
  %.pre = load ptr, ptr %10, align 8, !tbaa !15
  br label %83

83:                                               ; preds = %77, %69, %30, %22, %19
  %.0 = phi ptr [ null, %19 ], [ null, %30 ], [ null, %22 ], [ %71, %69 ], [ %.pre, %77 ]
  call void @llvm.lifetime.end.p0(i64 8, ptr nonnull %10) #5
  ret ptr %.0
}